target datalayout = "e-m:e-p270:32:32-p271:32:32-p272:64:64-i64:64-i128:128-f80:128-n8:16:32:64-S128"
target triple = "x86_64-pc-linux-gnu"

%"class.absl::base_internal::AtomicHook" = type { %"struct.std::atomic.2", ptr }
%"struct.std::atomic.2" = type { %"struct.std::__atomic_base.3" }
%"struct.std::__atomic_base.3" = type { ptr }
%struct.timespec = type { i64, i64 }
%"class.std::__cxx11::basic_string" = type { %"struct.std::__cxx11::basic_string<char>::_Alloc_hider", i64, %union.anon }
%"struct.std::__cxx11::basic_string<char>::_Alloc_hider" = type { ptr }
%union.anon = type { i64, [8 x i8] }

@.str.3 = private unnamed_addr constant [129 x i8] c"generated/home/dtcxzyw/WorkSpace/Projects/compilers/llvm-opt-benchmark/bench/abseil-cpp/abseil-cpp/absl/base/internal/sysinfo.cc\00", align 1
@_ZN4absl16raw_log_internal21internal_log_functionB5cxx11E = external global %"class.absl::base_internal::AtomicHook", align 8
@.str.4 = private unnamed_addr constant [26 x i8] c"clock_gettime() failed: (\00", align 1
@.str.5 = private unnamed_addr constant [2 x i8] c")\00", align 1

; Function Attrs: mustprogress nounwind uwtable
define linkonce_odr dso_local noundef i32 @_ZStanSt12memory_orderSt23__memory_order_modifier(i32 noundef %0, i32 noundef %1) #2 comdat {
  %3 = alloca i32, align 4
  %4 = alloca i32, align 4
  store i32 %0, ptr %3, align 4, !tbaa !19
  store i32 %1, ptr %4, align 4, !tbaa !23
  %5 = load i32, ptr %3, align 4, !tbaa !19
  %6 = load i32, ptr %4, align 4, !tbaa !23
  %7 = and i32 %5, %6
  ret i32 %7
}

; Function Attrs: alwaysinline mustprogress nounwind uwtable
define linkonce_odr dso_local noundef ptr @_ZNKSt13__atomic_baseIPFvN4absl11LogSeverityEPKciRKNSt7__cxx1112basic_stringIcSt11char_traitsIcESaIcEEEEE4loadESt12memory_order(ptr noundef nonnull align 8 dereferenceable(8) %0, i32 noundef %1) #6 comdat align 2 {
  %3 = alloca ptr, align 8
  %4 = alloca i32, align 4
  %5 = alloca i32, align 4
  %6 = alloca ptr, align 8
  store ptr %0, ptr %3, align 8, !tbaa !64
  store i32 %1, ptr %4, align 4, !tbaa !19
  %7 = load ptr, ptr %3, align 8
  call void @llvm.lifetime.start.p0(i64 4, ptr %5) #16
  %8 = load i32, ptr %4, align 4, !tbaa !19
  %9 = call noundef i32 @_ZStanSt12memory_orderSt23__memory_order_modifier(i32 noundef %8, i32 noundef 65535)
  store i32 %9, ptr %5, align 4, !tbaa !19
  br label %10

10:                                               ; preds = %2
  br label %11

11:                                               ; preds = %10
  br label %12

12:                                               ; preds = %11
  br label %13

13:                                               ; preds = %12
  br label %14

14:                                               ; preds = %13
  br label %15

15:                                               ; preds = %14
  %16 = getelementptr inbounds nuw %"struct.std::__atomic_base.3", ptr %7, i32 0, i32 0
  %17 = load i32, ptr %4, align 4, !tbaa !19
  switch i32 %17, label %18 [
    i32 1, label %20
    i32 2, label %20
    i32 5, label %22
  ]

18:                                               ; preds = %15
  %19 = load atomic i64, ptr %16 monotonic, align 8
  store i64 %19, ptr %6, align 8
  br label %24

20:                                               ; preds = %15, %15
  %21 = load atomic i64, ptr %16 acquire, align 8
  store i64 %21, ptr %6, align 8
  br label %24

22:                                               ; preds = %15
  %23 = load atomic i64, ptr %16 seq_cst, align 8
  store i64 %23, ptr %6, align 8
  br label %24

24:                                               ; preds = %22, %20, %18
  %25 = load ptr, ptr %6, align 8, !tbaa !11
  call void @llvm.lifetime.end.p0(i64 4, ptr %5) #16
  ret ptr %25
}

; Function Attrs: mustprogress nounwind uwtable
define linkonce_odr dso_local noundef ptr @_ZNKSt6atomicIPFvN4absl11LogSeverityEPKciRKNSt7__cxx1112basic_stringIcSt11char_traitsIcESaIcEEEEE4loadESt12memory_order(ptr noundef nonnull align 8 dereferenceable(8) %0, i32 noundef %1) #2 comdat align 2 {
  %3 = alloca ptr, align 8
  %4 = alloca i32, align 4
  store ptr %0, ptr %3, align 8, !tbaa !62
  store i32 %1, ptr %4, align 4, !tbaa !19
  %5 = load ptr, ptr %3, align 8
  %6 = getelementptr inbounds nuw %"struct.std::atomic.2", ptr %5, i32 0, i32 0
  %7 = load i32, ptr %4, align 4, !tbaa !19
  %8 = call noundef ptr @_ZNKSt13__atomic_baseIPFvN4absl11LogSeverityEPKciRKNSt7__cxx1112basic_stringIcSt11char_traitsIcESaIcEEEEE4loadESt12memory_order(ptr noundef nonnull align 8 dereferenceable(8) %6, i32 noundef %7) #16
  ret ptr %8
}

; Function Attrs: mustprogress nounwind uwtable
define linkonce_odr dso_local noundef ptr @_ZNK4absl13base_internal10AtomicHookIPFvNS_11LogSeverityEPKciRKNSt7__cxx1112basic_stringIcSt11char_traitsIcESaIcEEEEE6DoLoadEv(ptr noundef nonnull align 8 dereferenceable(16) %0) #2 comdat align 2 {
  %2 = alloca ptr, align 8
  store ptr %0, ptr %2, align 8, !tbaa !56
  %3 = load ptr, ptr %2, align 8
  %4 = getelementptr inbounds nuw %"class.absl::base_internal::AtomicHook", ptr %3, i32 0, i32 0
  %5 = call noundef ptr @_ZNKSt6atomicIPFvN4absl11LogSeverityEPKciRKNSt7__cxx1112basic_stringIcSt11char_traitsIcESaIcEEEEE4loadESt12memory_order(ptr noundef nonnull align 8 dereferenceable(8) %4, i32 noundef 2) #16
  ret ptr %5
}

; Function Attrs: mustprogress uwtable
define linkonce_odr dso_local void @_ZNK4absl13base_internal10AtomicHookIPFvNS_11LogSeverityEPKciRKNSt7__cxx1112basic_stringIcSt11char_traitsIcESaIcEEEEEclIJS2_RKS4_iSA_EEEvDpOT_(ptr noundef nonnull align 8 dereferenceable(16) %0, ptr noundef nonnull align 4 dereferenceable(4) %1, ptr noundef nonnull align 8 dereferenceable(8) %2, ptr noundef nonnull align 4 dereferenceable(4) %3, ptr noundef nonnull align 8 dereferenceable(32) %4) #0 comdat align 2 {
  %6 = alloca ptr, align 8
  %7 = alloca ptr, align 8
  %8 = alloca ptr, align 8
  %9 = alloca ptr, align 8
  %10 = alloca ptr, align 8
  store ptr %0, ptr %6, align 8, !tbaa !56
  store ptr %1, ptr %7, align 8, !tbaa !11
  store ptr %2, ptr %8, align 8, !tbaa !58
  store ptr %3, ptr %9, align 8, !tbaa !31
  store ptr %4, ptr %10, align 8, !tbaa !60
  %11 = load ptr, ptr %6, align 8
  %12 = call noundef ptr @_ZNK4absl13base_internal10AtomicHookIPFvNS_11LogSeverityEPKciRKNSt7__cxx1112basic_stringIcSt11char_traitsIcESaIcEEEEE6DoLoadEv(ptr noundef nonnull align 8 dereferenceable(16) %11)
  %13 = load ptr, ptr %7, align 8, !tbaa !11
  %14 = load i32, ptr %13, align 4, !tbaa !54
  %15 = load ptr, ptr %8, align 8, !tbaa !58
  %16 = load ptr, ptr %15, align 8, !tbaa !38
  %17 = load ptr, ptr %9, align 8, !tbaa !31
  %18 = load i32, ptr %17, align 4, !tbaa !4
  %19 = load ptr, ptr %10, align 8, !tbaa !60
  call void %12(i32 noundef %14, ptr noundef %16, i32 noundef %18, ptr noundef nonnull align 8 dereferenceable(32) %19)
  ret void
}

; Function Attrs: mustprogress uwtable
define internal noundef i64 @_ZN4absl13base_internalL23ReadMonotonicClockNanosEv() #0 personality ptr @__gxx_personality_v0 {
  %1 = alloca %struct.timespec, align 8
  %2 = alloca i32, align 4
  %3 = alloca ptr, align 8
  %4 = alloca i32, align 4
  %5 = alloca i32, align 4
  %6 = alloca %"class.std::__cxx11::basic_string", align 8
  %7 = alloca %"class.std::__cxx11::basic_string", align 8
  %8 = alloca %"class.std::__cxx11::basic_string", align 8
  %9 = alloca ptr, align 8
  %10 = alloca i32, align 4
  call void @llvm.lifetime.start.p0(i64 16, ptr %1) #16
  call void @llvm.lifetime.start.p0(i64 4, ptr %2) #16
  %11 = call i32 @clock_gettime(i32 noundef 4, ptr noundef %1) #16
  store i32 %11, ptr %2, align 4, !tbaa !4
  %12 = load i32, ptr %2, align 4, !tbaa !4
  %13 = icmp ne i32 %12, 0
  br i1 %13, label %14, label %40

14:                                               ; preds = %0
  br label %15

15:                                               ; preds = %14
  call void @llvm.lifetime.start.p0(i64 8, ptr %3) #16
  store ptr @.str.3, ptr %3, align 8, !tbaa !38
  call void @llvm.lifetime.start.p0(i64 4, ptr %4) #16
  store i32 3, ptr %4, align 4, !tbaa !54
  call void @llvm.lifetime.start.p0(i64 4, ptr %5) #16
  store i32 248, ptr %5, align 4, !tbaa !4
  call void @llvm.lifetime.start.p0(i64 32, ptr %6) #16
  call void @llvm.lifetime.start.p0(i64 32, ptr %7) #16
  call void @llvm.lifetime.start.p0(i64 32, ptr %8) #16
  %16 = call ptr @__errno_location() #18
  %17 = load i32, ptr %16, align 4, !tbaa !4
  call void @_ZNSt7__cxx119to_stringEi(ptr dead_on_unwind writable sret(%"class.std::__cxx11::basic_string") align 8 %8, i32 noundef %17) #16
  invoke void @_ZStplIcSt11char_traitsIcESaIcEENSt7__cxx1112basic_stringIT_T0_T1_EEPKS5_OS8_(ptr dead_on_unwind writable sret(%"class.std::__cxx11::basic_string") align 8 %7, ptr noundef @.str.4, ptr noundef nonnull align 8 dereferenceable(32) %8)
          to label %18 unwind label %22

18:                                               ; preds = %15
  invoke void @_ZStplIcSt11char_traitsIcESaIcEENSt7__cxx1112basic_stringIT_T0_T1_EEOS8_PKS5_(ptr dead_on_unwind writable sret(%"class.std::__cxx11::basic_string") align 8 %6, ptr noundef nonnull align 8 dereferenceable(32) %7, ptr noundef @.str.5)
          to label %19 unwind label %26

19:                                               ; preds = %18
  invoke void @_ZNK4absl13base_internal10AtomicHookIPFvNS_11LogSeverityEPKciRKNSt7__cxx1112basic_stringIcSt11char_traitsIcESaIcEEEEEclIJS2_RKS4_iSA_EEEvDpOT_(ptr noundef nonnull align 8 dereferenceable(16) @_ZN4absl16raw_log_internal21internal_log_functionB5cxx11E, ptr noundef nonnull align 4 dereferenceable(4) %4, ptr noundef nonnull align 8 dereferenceable(8) %3, ptr noundef nonnull align 4 dereferenceable(4) %5, ptr noundef nonnull align 8 dereferenceable(32) %6)
          to label %20 unwind label %30

20:                                               ; preds = %19
  call void @_ZNSt7__cxx1112basic_stringIcSt11char_traitsIcESaIcEED2Ev(ptr noundef nonnull align 8 dereferenceable(32) %6) #16
  call void @_ZNSt7__cxx1112basic_stringIcSt11char_traitsIcESaIcEED2Ev(ptr noundef nonnull align 8 dereferenceable(32) %7) #16
  call void @_ZNSt7__cxx1112basic_stringIcSt11char_traitsIcESaIcEED2Ev(ptr noundef nonnull align 8 dereferenceable(32) %8) #16
  call void @llvm.lifetime.end.p0(i64 32, ptr %8) #16
  call void @llvm.lifetime.end.p0(i64 32, ptr %7) #16
  call void @llvm.lifetime.end.p0(i64 32, ptr %6) #16
  call void @llvm.lifetime.end.p0(i64 4, ptr %5) #16
  call void @llvm.lifetime.end.p0(i64 4, ptr %4) #16
  br label %21

21:                                               ; preds = %20
  unreachable

22:                                               ; preds = %15
  %23 = landingpad { ptr, i32 }
          cleanup
  %24 = extractvalue { ptr, i32 } %23, 0
  store ptr %24, ptr %9, align 8
  %25 = extractvalue { ptr, i32 } %23, 1
  store i32 %25, ptr %10, align 4
  br label %35

26:                                               ; preds = %18
  %27 = landingpad { ptr, i32 }
          cleanup
  %28 = extractvalue { ptr, i32 } %27, 0
  store ptr %28, ptr %9, align 8
  %29 = extractvalue { ptr, i32 } %27, 1
  store i32 %29, ptr %10, align 4
  br label %34

30:                                               ; preds = %19
  %31 = landingpad { ptr, i32 }
          cleanup
  %32 = extractvalue { ptr, i32 } %31, 0
  store ptr %32, ptr %9, align 8
  %33 = extractvalue { ptr, i32 } %31, 1
  store i32 %33, ptr %10, align 4
  call void @_ZNSt7__cxx1112basic_stringIcSt11char_traitsIcESaIcEED2Ev(ptr noundef nonnull align 8 dereferenceable(32) %6) #16
  br label %34

34:                                               ; preds = %30, %26
  call void @_ZNSt7__cxx1112basic_stringIcSt11char_traitsIcESaIcEED2Ev(ptr noundef nonnull align 8 dereferenceable(32) %7) #16
  br label %35

35:                                               ; preds = %34, %22
  call void @_ZNSt7__cxx1112basic_stringIcSt11char_traitsIcESaIcEED2Ev(ptr noundef nonnull align 8 dereferenceable(32) %8) #16
  call void @llvm.lifetime.end.p0(i64 32, ptr %8) #16
  call void @llvm.lifetime.end.p0(i64 32, ptr %7) #16
  call void @llvm.lifetime.end.p0(i64 32, ptr %6) #16
  call void @llvm.lifetime.end.p0(i64 4, ptr %5) #16
  call void @llvm.lifetime.end.p0(i64 4, ptr %4) #16
  call void @llvm.lifetime.end.p0(i64 8, ptr %3) #16
  call void @llvm.lifetime.end.p0(i64 4, ptr %2) #16
  call void @llvm.lifetime.end.p0(i64 16, ptr %1) #16
  br label %47

36:                                               ; No predecessors!
  br label %37

37:                                               ; preds = %36
  call void @llvm.lifetime.end.p0(i64 8, ptr %3) #16
  br label %38

38:                                               ; preds = %37
  br label %39

39:                                               ; preds = %38
  br label %40

40:                                               ; preds = %39, %0
  %41 = getelementptr inbounds nuw %struct.timespec, ptr %1, i32 0, i32 0
  %42 = load i64, ptr %41, align 8, !tbaa !46
  %43 = mul nsw i64 %42, 1000000000
  %44 = getelementptr inbounds nuw %struct.timespec, ptr %1, i32 0, i32 1
  %45 = load i64, ptr %44, align 8, !tbaa !48
  %46 = add nsw i64 %43, %45
  call void @llvm.lifetime.end.p0(i64 4, ptr %2) #16
  call void @llvm.lifetime.end.p0(i64 16, ptr %1) #16
  ret i64 %46

47:                                               ; preds = %35
  %48 = load ptr, ptr %9, align 8
  %49 = load i32, ptr %10, align 4
  %50 = insertvalue { ptr, i32 } poison, ptr %48, 0
  %51 = insertvalue { ptr, i32 } %50, i32 %49, 1
  resume { ptr, i32 } %51
}