; Function Attrs: mustprogress uwtable
define internal fastcc noundef i64 @_ZN4absl13base_internalL23ReadMonotonicClockNanosEv() unnamed_addr #0 personality ptr @__gxx_personality_v0 {
  %1 = alloca %struct.timespec, align 8
  %2 = alloca %"class.std::__cxx11::basic_string", align 8
  %3 = alloca %"class.std::__cxx11::basic_string", align 8
  %4 = alloca %"class.std::__cxx11::basic_string", align 8
  call void @llvm.lifetime.start.p0(i64 16, ptr nonnull %1) #20
  %5 = call i32 @clock_gettime(i32 noundef 4, ptr noundef nonnull %1) #20
  %.not = icmp eq i32 %5, 0
  br i1 %.not, label %42, label %6

6:                                                ; preds = %0
  call void @llvm.lifetime.start.p0(i64 32, ptr nonnull %2) #20
  call void @llvm.lifetime.start.p0(i64 32, ptr nonnull %3) #20
  call void @llvm.lifetime.start.p0(i64 32, ptr nonnull %4) #20
  %7 = tail call ptr @__errno_location() #22
  %8 = load i32, ptr %7, align 4, !tbaa !5
  call void @_ZNSt7__cxx119to_stringEi(ptr dead_on_unwind nonnull writable sret(%"class.std::__cxx11::basic_string") align 8 %4, i32 noundef %8) #20
  invoke void @_ZStplIcSt11char_traitsIcESaIcEENSt7__cxx1112basic_stringIT_T0_T1_EEPKS5_OS8_(ptr dead_on_unwind nonnull writable sret(%"class.std::__cxx11::basic_string") align 8 %3, ptr noundef nonnull @.str.4, ptr noundef nonnull align 8 dereferenceable(32) %4)
          to label %9 unwind label %12

9:                                                ; preds = %6
  invoke void @_ZStplIcSt11char_traitsIcESaIcEENSt7__cxx1112basic_stringIT_T0_T1_EEOS8_PKS5_(ptr dead_on_unwind nonnull writable sret(%"class.std::__cxx11::basic_string") align 8 %2, ptr noundef nonnull align 8 dereferenceable(32) %3, ptr noundef nonnull @.str.5)
          to label %10 unwind label %14

10:                                               ; preds = %9
  %11 = load atomic i64, ptr @_ZN4absl16raw_log_internal21internal_log_functionB5cxx11E acquire, align 8
  %.0.i.i.i.i = inttoptr i64 %11 to ptr
  invoke void %.0.i.i.i.i(i32 noundef 3, ptr noundef nonnull @.str.3, i32 noundef 248, ptr noundef nonnull align 8 dereferenceable(32) %2)
          to label %_ZNK4absl13base_internal10AtomicHookIPFvNS_11LogSeverityEPKciRKNSt7__cxx1112basic_stringIcSt11char_traitsIcESaIcEEEEEclIJS2_RKS4_iSA_EEEvDpOT_.exit unwind label %16

_ZNK4absl13base_internal10AtomicHookIPFvNS_11LogSeverityEPKciRKNSt7__cxx1112basic_stringIcSt11char_traitsIcESaIcEEEEEclIJS2_RKS4_iSA_EEEvDpOT_.exit: ; preds = %10
  call void @_ZNSt7__cxx1112basic_stringIcSt11char_traitsIcESaIcEED2Ev(ptr noundef nonnull align 8 dereferenceable(32) %2) #20
  call void @_ZNSt7__cxx1112basic_stringIcSt11char_traitsIcESaIcEED2Ev(ptr noundef nonnull align 8 dereferenceable(32) %3) #20
  call void @_ZNSt7__cxx1112basic_stringIcSt11char_traitsIcESaIcEED2Ev(ptr noundef nonnull align 8 dereferenceable(32) %4) #20
  unreachable

12:                                               ; preds = %6
  %13 = landingpad { ptr, i32 }
          cleanup
  br label %_ZNSt7__cxx1112basic_stringIcSt11char_traitsIcESaIcEED2Ev.exit8

14:                                               ; preds = %9
  %15 = landingpad { ptr, i32 }
          cleanup
  br label %_ZNSt7__cxx1112basic_stringIcSt11char_traitsIcESaIcEED2Ev.exit

16:                                               ; preds = %10
  %17 = landingpad { ptr, i32 }
          cleanup
  %18 = load ptr, ptr %2, align 8, !tbaa !26
  %19 = getelementptr inbounds nuw i8, ptr %2, i64 16
  %20 = icmp eq ptr %18, %19
  br i1 %20, label %_ZNKSt7__cxx1112basic_stringIcSt11char_traitsIcESaIcEE11_M_is_localEv.exit.thread.i.i, label %_ZNKSt7__cxx1112basic_stringIcSt11char_traitsIcESaIcEE11_M_is_localEv.exit.i.i

_ZNKSt7__cxx1112basic_stringIcSt11char_traitsIcESaIcEE11_M_is_localEv.exit.thread.i.i: ; preds = %16
  %21 = getelementptr inbounds nuw i8, ptr %2, i64 8
  %22 = load i64, ptr %21, align 8, !tbaa !29
  %23 = icmp ult i64 %22, 16
  call void @llvm.assume(i1 %23)
  br label %_ZNSt7__cxx1112basic_stringIcSt11char_traitsIcESaIcEED2Ev.exit

_ZNKSt7__cxx1112basic_stringIcSt11char_traitsIcESaIcEE11_M_is_localEv.exit.i.i: ; preds = %16
  %24 = load i64, ptr %19, align 8, !tbaa !14
  %25 = add i64 %24, 1
  call void @_ZdlPvm(ptr noundef %18, i64 noundef %25) #23
  br label %_ZNSt7__cxx1112basic_stringIcSt11char_traitsIcESaIcEED2Ev.exit

_ZNSt7__cxx1112basic_stringIcSt11char_traitsIcESaIcEED2Ev.exit: ; preds = %_ZNKSt7__cxx1112basic_stringIcSt11char_traitsIcESaIcEE11_M_is_localEv.exit.i.i, %_ZNKSt7__cxx1112basic_stringIcSt11char_traitsIcESaIcEE11_M_is_localEv.exit.thread.i.i, %14
  %.pn = phi { ptr, i32 } [ %15, %14 ], [ %17, %_ZNKSt7__cxx1112basic_stringIcSt11char_traitsIcESaIcEE11_M_is_localEv.exit.thread.i.i ], [ %17, %_ZNKSt7__cxx1112basic_stringIcSt11char_traitsIcESaIcEE11_M_is_localEv.exit.i.i ]
  %26 = load ptr, ptr %3, align 8, !tbaa !26
  %27 = getelementptr inbounds nuw i8, ptr %3, i64 16
  %28 = icmp eq ptr %26, %27
  br i1 %28, label %_ZNKSt7__cxx1112basic_stringIcSt11char_traitsIcESaIcEE11_M_is_localEv.exit.thread.i.i7, label %_ZNKSt7__cxx1112basic_stringIcSt11char_traitsIcESaIcEE11_M_is_localEv.exit.i.i6

_ZNKSt7__cxx1112basic_stringIcSt11char_traitsIcESaIcEE11_M_is_localEv.exit.thread.i.i7: ; preds = %_ZNSt7__cxx1112basic_stringIcSt11char_traitsIcESaIcEED2Ev.exit
  %29 = getelementptr inbounds nuw i8, ptr %3, i64 8
  %30 = load i64, ptr %29, align 8, !tbaa !29
  %31 = icmp ult i64 %30, 16
  call void @llvm.assume(i1 %31)
  br label %_ZNSt7__cxx1112basic_stringIcSt11char_traitsIcESaIcEED2Ev.exit8

_ZNKSt7__cxx1112basic_stringIcSt11char_traitsIcESaIcEE11_M_is_localEv.exit.i.i6: ; preds = %_ZNSt7__cxx1112basic_stringIcSt11char_traitsIcESaIcEED2Ev.exit
  %32 = load i64, ptr %27, align 8, !tbaa !14
  %33 = add i64 %32, 1
  call void @_ZdlPvm(ptr noundef %26, i64 noundef %33) #23
  br label %_ZNSt7__cxx1112basic_stringIcSt11char_traitsIcESaIcEED2Ev.exit8

_ZNSt7__cxx1112basic_stringIcSt11char_traitsIcESaIcEED2Ev.exit8: ; preds = %_ZNKSt7__cxx1112basic_stringIcSt11char_traitsIcESaIcEE11_M_is_localEv.exit.i.i6, %_ZNKSt7__cxx1112basic_stringIcSt11char_traitsIcESaIcEE11_M_is_localEv.exit.thread.i.i7, %12
  %.pn.pn = phi { ptr, i32 } [ %13, %12 ], [ %.pn, %_ZNKSt7__cxx1112basic_stringIcSt11char_traitsIcESaIcEE11_M_is_localEv.exit.thread.i.i7 ], [ %.pn, %_ZNKSt7__cxx1112basic_stringIcSt11char_traitsIcESaIcEE11_M_is_localEv.exit.i.i6 ]
  %34 = load ptr, ptr %4, align 8, !tbaa !26
  %35 = getelementptr inbounds nuw i8, ptr %4, i64 16
  %36 = icmp eq ptr %34, %35
  br i1 %36, label %_ZNKSt7__cxx1112basic_stringIcSt11char_traitsIcESaIcEE11_M_is_localEv.exit.thread.i.i10, label %_ZNKSt7__cxx1112basic_stringIcSt11char_traitsIcESaIcEE11_M_is_localEv.exit.i.i9

_ZNKSt7__cxx1112basic_stringIcSt11char_traitsIcESaIcEE11_M_is_localEv.exit.thread.i.i10: ; preds = %_ZNSt7__cxx1112basic_stringIcSt11char_traitsIcESaIcEED2Ev.exit8
  %37 = getelementptr inbounds nuw i8, ptr %4, i64 8
  %38 = load i64, ptr %37, align 8, !tbaa !29
  %39 = icmp ult i64 %38, 16
  call void @llvm.assume(i1 %39)
  br label %_ZNSt7__cxx1112basic_stringIcSt11char_traitsIcESaIcEED2Ev.exit11

_ZNKSt7__cxx1112basic_stringIcSt11char_traitsIcESaIcEE11_M_is_localEv.exit.i.i9: ; preds = %_ZNSt7__cxx1112basic_stringIcSt11char_traitsIcESaIcEED2Ev.exit8
  %40 = load i64, ptr %35, align 8, !tbaa !14
  %41 = add i64 %40, 1
  call void @_ZdlPvm(ptr noundef %34, i64 noundef %41) #23
  br label %_ZNSt7__cxx1112basic_stringIcSt11char_traitsIcESaIcEED2Ev.exit11

_ZNSt7__cxx1112basic_stringIcSt11char_traitsIcESaIcEED2Ev.exit11: ; preds = %_ZNKSt7__cxx1112basic_stringIcSt11char_traitsIcESaIcEE11_M_is_localEv.exit.thread.i.i10, %_ZNKSt7__cxx1112basic_stringIcSt11char_traitsIcESaIcEE11_M_is_localEv.exit.i.i9
  call void @llvm.lifetime.end.p0(i64 32, ptr nonnull %4) #20
  call void @llvm.lifetime.end.p0(i64 32, ptr nonnull %3) #20
  call void @llvm.lifetime.end.p0(i64 32, ptr nonnull %2) #20
  call void @llvm.lifetime.end.p0(i64 16, ptr nonnull %1) #20
  resume { ptr, i32 } %.pn.pn

42:                                               ; preds = %0
  %43 = load i64, ptr %1, align 8, !tbaa !20
  %44 = mul nsw i64 %43, 1000000000
  %45 = getelementptr inbounds nuw i8, ptr %1, i64 8
  %46 = load i64, ptr %45, align 8, !tbaa !23
  %47 = add nsw i64 %44, %46
  call void @llvm.lifetime.end.p0(i64 16, ptr nonnull %1) #20
  ret i64 %47
}